; ModuleID = '24/2314.cpp'
source_filename = "24/2314.cpp"
target datalayout = "e-m:e-p270:32:32-p271:32:32-p272:64:64-i64:64-f80:128-n8:16:32:64-S128"
target triple = "x86_64-pc-linux-gnu"

%"class.std::ios_base::Init" = type { i8 }
%"class.std::basic_istream" = type { i32 (...)**, i64, %"class.std::basic_ios" }
%"class.std::basic_ios" = type { %"class.std::ios_base", %"class.std::basic_ostream"*, i8, i8, %"class.std::basic_streambuf"*, %"class.std::ctype"*, %"class.std::num_put"*, %"class.std::num_get"* }
%"class.std::ios_base" = type { i32 (...)**, i64, i64, i32, i32, i32, %"struct.std::ios_base::_Callback_list"*, %"struct.std::ios_base::_Words", [8 x %"struct.std::ios_base::_Words"], i32, %"struct.std::ios_base::_Words"*, %"class.std::locale" }
%"struct.std::ios_base::_Callback_list" = type { %"struct.std::ios_base::_Callback_list"*, void (i32, %"class.std::ios_base"*, i32)*, i32, i32 }
%"struct.std::ios_base::_Words" = type { i8*, i64 }
%"class.std::locale" = type { %"class.std::locale::_Impl"* }
%"class.std::locale::_Impl" = type { i32, %"class.std::locale::facet"**, i64, %"class.std::locale::facet"**, i8** }
%"class.std::locale::facet" = type <{ i32 (...)**, i32, [4 x i8] }>
%"class.std::basic_ostream" = type { i32 (...)**, %"class.std::basic_ios" }
%"class.std::basic_streambuf" = type { i32 (...)**, i8*, i8*, i8*, i8*, i8*, i8*, %"class.std::locale" }
%"class.std::ctype" = type <{ %"class.std::locale::facet.base", [4 x i8], %struct.__locale_struct*, i8, [7 x i8], i32*, i32*, i16*, i8, [256 x i8], [256 x i8], i8, [6 x i8] }>
%"class.std::locale::facet.base" = type <{ i32 (...)**, i32 }>
%struct.__locale_struct = type { [13 x %struct.__locale_data*], i16*, i32*, i32*, [13 x i8*] }
%struct.__locale_data = type opaque
%"class.std::num_put" = type { %"class.std::locale::facet.base", [4 x i8] }
%"class.std::num_get" = type { %"class.std::locale::facet.base", [4 x i8] }

@_ZStL8__ioinit = internal global %"class.std::ios_base::Init" zeroinitializer, align 1
@__dso_handle = external hidden global i8
@_ZSt3cin = external dso_local global %"class.std::basic_istream", align 8
@_ZSt4cout = external dso_local global %"class.std::basic_ostream", align 8
@llvm.global_ctors = appending global [1 x { i32, void ()*, i8* }] [{ i32, void ()*, i8* } { i32 65535, void ()* @_GLOBAL__sub_I_2314.cpp, i8* null }]

; Function Attrs: noinline uwtable
define internal void @__cxx_global_var_init() #0 section ".text.startup" {
  call void @_ZNSt8ios_base4InitC1Ev(%"class.std::ios_base::Init"* @_ZStL8__ioinit)
  %1 = call i32 @__cxa_atexit(void (i8*)* bitcast (void (%"class.std::ios_base::Init"*)* @_ZNSt8ios_base4InitD1Ev to void (i8*)*), i8* getelementptr inbounds (%"class.std::ios_base::Init", %"class.std::ios_base::Init"* @_ZStL8__ioinit, i32 0, i32 0), i8* @__dso_handle) #3
  ret void
}

declare dso_local void @_ZNSt8ios_base4InitC1Ev(%"class.std::ios_base::Init"*) unnamed_addr #1

; Function Attrs: nounwind
declare dso_local void @_ZNSt8ios_base4InitD1Ev(%"class.std::ios_base::Init"*) unnamed_addr #2

; Function Attrs: nounwind
declare dso_local i32 @__cxa_atexit(void (i8*)*, i8*, i8*) #3

; Function Attrs: noinline norecurse uwtable
define dso_local i32 @main() #4 {
  %1 = alloca i32, align 4
  %2 = alloca i32, align 4
  %3 = alloca i32, align 4
  %4 = alloca i32, align 4
  %5 = alloca i32, align 4
  %6 = alloca [50 x i8], align 16
  %7 = alloca [50 x i8], align 16
  %8 = alloca [50 x i8], align 16
  %9 = alloca i8, align 1
  store i32 0, i32* %1, align 4
  store i32 0, i32* %2, align 4
  store i32 99, i32* %3, align 4
  store i32 0, i32* %5, align 4
  br label %10

10:                                               ; preds = %0, %74
  br label %11

11:                                               ; preds = %22, %10
  %12 = call i32 @_ZNSi3getEv(%"class.std::basic_istream"* @_ZSt3cin)
  %13 = trunc i32 %12 to i8
  store i8 %13, i8* %9, align 1
  br label %14

14:                                               ; preds = %11
  %15 = load i8, i8* %9, align 1
  %16 = sext i8 %15 to i32
  %17 = icmp eq i32 %16, 32
  br i1 %17, label %22, label %18

18:                                               ; preds = %14
  %19 = load i8, i8* %9, align 1
  %20 = sext i8 %19 to i32
  %21 = icmp eq i32 %20, 44
  br label %22

22:                                               ; preds = %18, %14
  %23 = phi i1 [ true, %14 ], [ %21, %18 ]
  br i1 %23, label %11, label %24

24:                                               ; preds = %22
  store i32 0, i32* %4, align 4
  br label %25

25:                                               ; preds = %48, %24
  %26 = load i8, i8* %9, align 1
  %27 = sext i8 %26 to i32
  %28 = icmp ne i32 %27, 32
  br i1 %28, label %29, label %33

29:                                               ; preds = %25
  %30 = load i8, i8* %9, align 1
  %31 = sext i8 %30 to i32
  %32 = icmp ne i32 %31, 44
  br label %33

33:                                               ; preds = %29, %25
  %34 = phi i1 [ false, %25 ], [ %32, %29 ]
  br i1 %34, label %35, label %49

35:                                               ; preds = %33
  %36 = load i8, i8* %9, align 1
  %37 = load i32, i32* %4, align 4
  %38 = sext i32 %37 to i64
  %39 = getelementptr inbounds [50 x i8], [50 x i8]* %8, i64 0, i64 %38
  store i8 %36, i8* %39, align 1
  %40 = call i32 @_ZNSi3getEv(%"class.std::basic_istream"* @_ZSt3cin)
  %41 = trunc i32 %40 to i8
  store i8 %41, i8* %9, align 1
  %42 = load i32, i32* %4, align 4
  %43 = add nsw i32 %42, 1
  store i32 %43, i32* %4, align 4
  %44 = load i8, i8* %9, align 1
  %45 = sext i8 %44 to i32
  %46 = icmp eq i32 %45, 10
  br i1 %46, label %47, label %48

47:                                               ; preds = %35
  store i32 1, i32* %5, align 4
  br label %49

48:                                               ; preds = %35
  br label %25

49:                                               ; preds = %47, %33
  %50 = load i32, i32* %4, align 4
  %51 = sext i32 %50 to i64
  %52 = getelementptr inbounds [50 x i8], [50 x i8]* %8, i64 0, i64 %51
  store i8 0, i8* %52, align 1
  %53 = load i32, i32* %4, align 4
  %54 = load i32, i32* %2, align 4
  %55 = icmp sgt i32 %53, %54
  br i1 %55, label %56, label %61

56:                                               ; preds = %49
  %57 = getelementptr inbounds [50 x i8], [50 x i8]* %6, i64 0, i64 0
  %58 = getelementptr inbounds [50 x i8], [50 x i8]* %8, i64 0, i64 0
  %59 = call i8* @strcpy(i8* %57, i8* %58) #3
  %60 = load i32, i32* %4, align 4
  store i32 %60, i32* %2, align 4
  br label %61

61:                                               ; preds = %56, %49
  %62 = load i32, i32* %4, align 4
  %63 = load i32, i32* %3, align 4
  %64 = icmp slt i32 %62, %63
  br i1 %64, label %65, label %70

65:                                               ; preds = %61
  %66 = getelementptr inbounds [50 x i8], [50 x i8]* %7, i64 0, i64 0
  %67 = getelementptr inbounds [50 x i8], [50 x i8]* %8, i64 0, i64 0
  %68 = call i8* @strcpy(i8* %66, i8* %67) #3
  %69 = load i32, i32* %4, align 4
  store i32 %69, i32* %3, align 4
  br label %70

70:                                               ; preds = %65, %61
  %71 = load i32, i32* %5, align 4
  %72 = icmp eq i32 %71, 1
  br i1 %72, label %73, label %74

73:                                               ; preds = %70
  br label %75

74:                                               ; preds = %70
  br label %10

75:                                               ; preds = %73
  br label %76

76:                                               ; preds = %75
  %77 = getelementptr inbounds [50 x i8], [50 x i8]* %6, i64 0, i64 0
  %78 = call dereferenceable(272) %"class.std::basic_ostream"* @_ZStlsISt11char_traitsIcEERSt13basic_ostreamIcT_ES5_PKc(%"class.std::basic_ostream"* dereferenceable(272) @_ZSt4cout, i8* %77)
  %79 = call dereferenceable(272) %"class.std::basic_ostream"* @_ZNSolsEPFRSoS_E(%"class.std::basic_ostream"* %78, %"class.std::basic_ostream"* (%"class.std::basic_ostream"*)* @_ZSt4endlIcSt11char_traitsIcEERSt13basic_ostreamIT_T0_ES6_)
  %80 = getelementptr inbounds [50 x i8], [50 x i8]* %7, i64 0, i64 0
  %81 = call dereferenceable(272) %"class.std::basic_ostream"* @_ZStlsISt11char_traitsIcEERSt13basic_ostreamIcT_ES5_PKc(%"class.std::basic_ostream"* dereferenceable(272) @_ZSt4cout, i8* %80)
  %82 = call dereferenceable(272) %"class.std::basic_ostream"* @_ZNSolsEPFRSoS_E(%"class.std::basic_ostream"* %81, %"class.std::basic_ostream"* (%"class.std::basic_ostream"*)* @_ZSt4endlIcSt11char_traitsIcEERSt13basic_ostreamIT_T0_ES6_)
  ret i32 0
}

declare dso_local i32 @_ZNSi3getEv(%"class.std::basic_istream"*) #1

; Function Attrs: nounwind
declare dso_local i8* @strcpy(i8*, i8*) #2

declare dso_local dereferenceable(272) %"class.std::basic_ostream"* @_ZStlsISt11char_traitsIcEERSt13basic_ostreamIcT_ES5_PKc(%"class.std::basic_ostream"* dereferenceable(272), i8*) #1

declare dso_local dereferenceable(272) %"class.std::basic_ostream"* @_ZNSolsEPFRSoS_E(%"class.std::basic_ostream"*, %"class.std::basic_ostream"* (%"class.std::basic_ostream"*)*) #1

declare dso_local dereferenceable(272) %"class.std::basic_ostream"* @_ZSt4endlIcSt11char_traitsIcEERSt13basic_ostreamIT_T0_ES6_(%"class.std::basic_ostream"* dereferenceable(272)) #1

; Function Attrs: noinline uwtable
define internal void @_GLOBAL__sub_I_2314.cpp() #0 section ".text.startup" {
  call void @__cxx_global_var_init()
  ret void
}


!llvm.module.flags = !{!0}
!llvm.ident = !{!1}

!0 = !{i32 1, !"wchar_size", i32 4}
!1 = !{!"clang version 10.0.0-4ubuntu1 "}
